; Function Attrs: nounwind uwtable
define ptr @Cudd_addLog(ptr noundef %0, ptr noundef readonly captures(none) %1) local_unnamed_addr #0 {
  %3 = load i32, ptr %1, align 8, !tbaa !27
  %4 = icmp eq i32 %3, 2147483647
  br i1 %4, label %5, label %10

5:                                                ; preds = %2
  %6 = getelementptr inbounds nuw i8, ptr %1, i64 16
  %7 = load double, ptr %6, align 8, !tbaa !30
  %8 = tail call double @log(double noundef %7) #5, !tbaa !29
  %9 = tail call ptr @cuddUniqueConst(ptr noundef %0, double noundef %8) #5
  br label %10

10:                                               ; preds = %2, %5
  %.0 = phi ptr [ %9, %5 ], [ null, %2 ]
  ret ptr %.0
}